target datalayout = "e-m:e-p270:32:32-p271:32:32-p272:64:64-i64:64-i128:128-f80:128-n8:16:32:64-S128"
target triple = "x86_64-pc-linux-gnu"

%"class.icu_77::RuleBasedTimeZone" = type <{ %"class.icu_77::BasicTimeZone", ptr, ptr, ptr, ptr, i8, [7 x i8] }>
%"class.icu_77::BasicTimeZone" = type { %"class.icu_77::TimeZone" }
%"class.icu_77::TimeZone" = type { %"class.icu_77::UObject", %"class.icu_77::UnicodeString" }
%"class.icu_77::UObject" = type { ptr }
%"class.icu_77::UnicodeString" = type { %"class.icu_77::Replaceable", %"union.icu_77::UnicodeString::StackBufferOrFields" }
%"class.icu_77::Replaceable" = type { %"class.icu_77::UObject" }
%"union.icu_77::UnicodeString::StackBufferOrFields" = type { %struct.anon.0, [32 x i8] }
%struct.anon.0 = type { i16, i32, i32, ptr }

; Function Attrs: mustprogress uwtable
define void @_ZN6icu_7717RuleBasedTimeZoneC2ERKNS_13UnicodeStringEPNS_19InitialTimeZoneRuleE(ptr noundef nonnull align 8 dereferenceable(105) %0, ptr noundef nonnull align 8 dereferenceable(64) %1, ptr noundef %2) unnamed_addr #1 align 2 {
  %4 = alloca ptr, align 8
  %5 = alloca ptr, align 8
  %6 = alloca ptr, align 8
  store ptr %0, ptr %4, align 8, !tbaa !3
  store ptr %1, ptr %5, align 8, !tbaa !8
  store ptr %2, ptr %6, align 8, !tbaa !10
  %7 = load ptr, ptr %4, align 8
  %8 = load ptr, ptr %5, align 8, !tbaa !8
  call void @_ZN6icu_7713BasicTimeZoneC2ERKNS_13UnicodeStringE(ptr noundef nonnull align 8 dereferenceable(72) %7, ptr noundef nonnull align 8 dereferenceable(64) %8)
  store ptr getelementptr inbounds inrange(-16, 176) ({ [24 x ptr] }, ptr @_ZTVN6icu_7717RuleBasedTimeZoneE, i32 0, i32 0, i32 2), ptr %7, align 8, !tbaa !12
  %9 = getelementptr inbounds nuw %"class.icu_77::RuleBasedTimeZone", ptr %7, i32 0, i32 1
  %10 = load ptr, ptr %6, align 8, !tbaa !10
  store ptr %10, ptr %9, align 8, !tbaa !14
  %11 = getelementptr inbounds nuw %"class.icu_77::RuleBasedTimeZone", ptr %7, i32 0, i32 2
  store ptr null, ptr %11, align 8, !tbaa !22
  %12 = getelementptr inbounds nuw %"class.icu_77::RuleBasedTimeZone", ptr %7, i32 0, i32 3
  store ptr null, ptr %12, align 8, !tbaa !23
  %13 = getelementptr inbounds nuw %"class.icu_77::RuleBasedTimeZone", ptr %7, i32 0, i32 4
  store ptr null, ptr %13, align 8, !tbaa !24
  %14 = getelementptr inbounds nuw %"class.icu_77::RuleBasedTimeZone", ptr %7, i32 0, i32 5
  store i8 0, ptr %14, align 8, !tbaa !25
  ret void
}